; ModuleID = '21/735.c'
source_filename = "21/735.c"
target datalayout = "e-m:e-p270:32:32-p271:32:32-p272:64:64-i64:64-f80:128-n8:16:32:64-S128"
target triple = "x86_64-pc-linux-gnu"

@.str = private unnamed_addr constant [3 x i8] c"%d\00", align 1
@.str.1 = private unnamed_addr constant [4 x i8] c",%d\00", align 1

; Function Attrs: noinline nounwind uwtable
define dso_local i32 @main() #0 {
  %1 = alloca i32, align 4
  %2 = alloca i32, align 4
  %3 = alloca i32, align 4
  %4 = alloca i32, align 4
  %5 = alloca i32, align 4
  %6 = alloca i32, align 4
  %7 = alloca i32, align 4
  %8 = alloca double, align 8
  %9 = alloca double, align 8
  %10 = alloca double, align 8
  %11 = alloca [305 x i32], align 16
  store i32 0, i32* %1, align 4
  store double 0.000000e+00, double* %9, align 8
  %12 = call i32 (i8*, ...) @__isoc99_scanf(i8* getelementptr inbounds ([3 x i8], [3 x i8]* @.str, i64 0, i64 0), i32* %7)
  store i32 0, i32* %2, align 4
  br label %13

13:                                               ; preds = %29, %0
  %14 = load i32, i32* %2, align 4
  %15 = load i32, i32* %7, align 4
  %16 = icmp slt i32 %14, %15
  br i1 %16, label %17, label %32

17:                                               ; preds = %13
  %18 = load i32, i32* %2, align 4
  %19 = sext i32 %18 to i64
  %20 = getelementptr inbounds [305 x i32], [305 x i32]* %11, i64 0, i64 %19
  %21 = call i32 (i8*, ...) @__isoc99_scanf(i8* getelementptr inbounds ([3 x i8], [3 x i8]* @.str, i64 0, i64 0), i32* %20)
  %22 = load i32, i32* %2, align 4
  %23 = sext i32 %22 to i64
  %24 = getelementptr inbounds [305 x i32], [305 x i32]* %11, i64 0, i64 %23
  %25 = load i32, i32* %24, align 4
  %26 = sitofp i32 %25 to double
  %27 = load double, double* %9, align 8
  %28 = fadd double %27, %26
  store double %28, double* %9, align 8
  br label %29

29:                                               ; preds = %17
  %30 = load i32, i32* %2, align 4
  %31 = add nsw i32 %30, 1
  store i32 %31, i32* %2, align 4
  br label %13

32:                                               ; preds = %13
  %33 = load double, double* %9, align 8
  %34 = load i32, i32* %7, align 4
  %35 = sitofp i32 %34 to double
  %36 = fdiv double %33, %35
  store double %36, double* %8, align 8
  %37 = getelementptr inbounds [305 x i32], [305 x i32]* %11, i64 0, i64 0
  %38 = load i32, i32* %37, align 16
  %39 = sitofp i32 %38 to double
  %40 = load double, double* %8, align 8
  %41 = fsub double %39, %40
  %42 = call double @llvm.fabs.f64(double %41)
  store double %42, double* %10, align 8
  store i32 1, i32* %2, align 4
  br label %43

43:                                               ; preds = %68, %32
  %44 = load i32, i32* %2, align 4
  %45 = load i32, i32* %7, align 4
  %46 = icmp slt i32 %44, %45
  br i1 %46, label %47, label %71

47:                                               ; preds = %43
  %48 = load i32, i32* %2, align 4
  %49 = sext i32 %48 to i64
  %50 = getelementptr inbounds [305 x i32], [305 x i32]* %11, i64 0, i64 %49
  %51 = load i32, i32* %50, align 4
  %52 = sitofp i32 %51 to double
  %53 = load double, double* %8, align 8
  %54 = fsub double %52, %53
  %55 = call double @llvm.fabs.f64(double %54)
  %56 = load double, double* %10, align 8
  %57 = fcmp ogt double %55, %56
  br i1 %57, label %58, label %67

58:                                               ; preds = %47
  %59 = load i32, i32* %2, align 4
  %60 = sext i32 %59 to i64
  %61 = getelementptr inbounds [305 x i32], [305 x i32]* %11, i64 0, i64 %60
  %62 = load i32, i32* %61, align 4
  %63 = sitofp i32 %62 to double
  %64 = load double, double* %8, align 8
  %65 = fsub double %63, %64
  %66 = call double @llvm.fabs.f64(double %65)
  store double %66, double* %10, align 8
  br label %67

67:                                               ; preds = %58, %47
  br label %68

68:                                               ; preds = %67
  %69 = load i32, i32* %2, align 4
  %70 = add nsw i32 %69, 1
  store i32 %70, i32* %2, align 4
  br label %43

71:                                               ; preds = %43
  store i32 0, i32* %2, align 4
  br label %72

72:                                               ; preds = %95, %71
  %73 = load i32, i32* %2, align 4
  %74 = load i32, i32* %7, align 4
  %75 = icmp slt i32 %73, %74
  br i1 %75, label %76, label %98

76:                                               ; preds = %72
  %77 = load double, double* %10, align 8
  %78 = load i32, i32* %2, align 4
  %79 = sext i32 %78 to i64
  %80 = getelementptr inbounds [305 x i32], [305 x i32]* %11, i64 0, i64 %79
  %81 = load i32, i32* %80, align 4
  %82 = sitofp i32 %81 to double
  %83 = load double, double* %8, align 8
  %84 = fsub double %82, %83
  %85 = call double @llvm.fabs.f64(double %84)
  %86 = fsub double %77, %85
  %87 = fcmp olt double %86, 0x3EB0C6F7A0B5ED8D
  br i1 %87, label %88, label %94

88:                                               ; preds = %76
  %89 = load i32, i32* %2, align 4
  %90 = sext i32 %89 to i64
  %91 = getelementptr inbounds [305 x i32], [305 x i32]* %11, i64 0, i64 %90
  %92 = load i32, i32* %91, align 4
  %93 = call i32 (i8*, ...) @printf(i8* getelementptr inbounds ([3 x i8], [3 x i8]* @.str, i64 0, i64 0), i32 %92)
  br label %98

94:                                               ; preds = %76
  br label %95

95:                                               ; preds = %94
  %96 = load i32, i32* %2, align 4
  %97 = add nsw i32 %96, 1
  store i32 %97, i32* %2, align 4
  br label %72

98:                                               ; preds = %88, %72
  %99 = load i32, i32* %2, align 4
  %100 = add nsw i32 %99, 1
  store i32 %100, i32* %2, align 4
  br label %101

101:                                              ; preds = %124, %98
  %102 = load i32, i32* %2, align 4
  %103 = load i32, i32* %7, align 4
  %104 = icmp slt i32 %102, %103
  br i1 %104, label %105, label %127

105:                                              ; preds = %101
  %106 = load double, double* %10, align 8
  %107 = load i32, i32* %2, align 4
  %108 = sext i32 %107 to i64
  %109 = getelementptr inbounds [305 x i32], [305 x i32]* %11, i64 0, i64 %108
  %110 = load i32, i32* %109, align 4
  %111 = sitofp i32 %110 to double
  %112 = load double, double* %8, align 8
  %113 = fsub double %111, %112
  %114 = call double @llvm.fabs.f64(double %113)
  %115 = fsub double %106, %114
  %116 = fcmp olt double %115, 0x3EB0C6F7A0B5ED8D
  br i1 %116, label %117, label %123

117:                                              ; preds = %105
  %118 = load i32, i32* %2, align 4
  %119 = sext i32 %118 to i64
  %120 = getelementptr inbounds [305 x i32], [305 x i32]* %11, i64 0, i64 %119
  %121 = load i32, i32* %120, align 4
  %122 = call i32 (i8*, ...) @printf(i8* getelementptr inbounds ([4 x i8], [4 x i8]* @.str.1, i64 0, i64 0), i32 %121)
  br label %123

123:                                              ; preds = %117, %105
  br label %124

124:                                              ; preds = %123
  %125 = load i32, i32* %2, align 4
  %126 = add nsw i32 %125, 1
  store i32 %126, i32* %2, align 4
  br label %101

127:                                              ; preds = %101
  ret i32 0
}

declare dso_local i32 @__isoc99_scanf(i8*, ...) #1

; Function Attrs: nounwind readnone speculatable willreturn
declare double @llvm.fabs.f64(double) #2

declare dso_local i32 @printf(i8*, ...) #1


!llvm.module.flags = !{!0}
!llvm.ident = !{!1}

!0 = !{i32 1, !"wchar_size", i32 4}
!1 = !{!"clang version 10.0.0-4ubuntu1 "}
